target datalayout = "e-m:e-p270:32:32-p271:32:32-p272:64:64-i64:64-i128:128-f80:128-n8:16:32:64-S128"
target triple = "x86_64-pc-linux-gnu"

%struct.sha1_ctx = type { [64 x i8], i64, [5 x i32] }

; Function Attrs: nounwind uwtable
define dso_local void @rhash_sha1_init(ptr noundef %0) #0 {
  %2 = alloca ptr, align 8
  store ptr %0, ptr %2, align 8, !tbaa !4
  %3 = load ptr, ptr %2, align 8, !tbaa !4
  %4 = getelementptr inbounds nuw %struct.sha1_ctx, ptr %3, i32 0, i32 1
  store i64 0, ptr %4, align 8, !tbaa !9
  %5 = load ptr, ptr %2, align 8, !tbaa !4
  %6 = getelementptr inbounds nuw %struct.sha1_ctx, ptr %5, i32 0, i32 2
  %7 = getelementptr inbounds [5 x i32], ptr %6, i64 0, i64 0
  store i32 1732584193, ptr %7, align 8, !tbaa !12
  %8 = load ptr, ptr %2, align 8, !tbaa !4
  %9 = getelementptr inbounds nuw %struct.sha1_ctx, ptr %8, i32 0, i32 2
  %10 = getelementptr inbounds [5 x i32], ptr %9, i64 0, i64 1
  store i32 -271733879, ptr %10, align 4, !tbaa !12
  %11 = load ptr, ptr %2, align 8, !tbaa !4
  %12 = getelementptr inbounds nuw %struct.sha1_ctx, ptr %11, i32 0, i32 2
  %13 = getelementptr inbounds [5 x i32], ptr %12, i64 0, i64 2
  store i32 -1732584194, ptr %13, align 8, !tbaa !12
  %14 = load ptr, ptr %2, align 8, !tbaa !4
  %15 = getelementptr inbounds nuw %struct.sha1_ctx, ptr %14, i32 0, i32 2
  %16 = getelementptr inbounds [5 x i32], ptr %15, i64 0, i64 3
  store i32 271733878, ptr %16, align 4, !tbaa !12
  %17 = load ptr, ptr %2, align 8, !tbaa !4
  %18 = getelementptr inbounds nuw %struct.sha1_ctx, ptr %17, i32 0, i32 2
  %19 = getelementptr inbounds [5 x i32], ptr %18, i64 0, i64 4
  store i32 -1009589776, ptr %19, align 8, !tbaa !12
  ret void
}