; Function Attrs: mustprogress nofree norecurse nosync nounwind willreturn memory(argmem: write) uwtable
define dso_local void @rhash_sha1_init(ptr noundef writeonly captures(none) initializes((64, 92)) %0) local_unnamed_addr #0 {
  %2 = getelementptr inbounds nuw i8, ptr %0, i64 64
  store i64 0, ptr %2, align 8, !tbaa !4
  %3 = getelementptr inbounds nuw i8, ptr %0, i64 72
  store i32 1732584193, ptr %3, align 8, !tbaa !9
  %4 = getelementptr inbounds nuw i8, ptr %0, i64 76
  store i32 -271733879, ptr %4, align 4, !tbaa !9
  %5 = getelementptr inbounds nuw i8, ptr %0, i64 80
  store i32 -1732584194, ptr %5, align 8, !tbaa !9
  %6 = getelementptr inbounds nuw i8, ptr %0, i64 84
  store i32 271733878, ptr %6, align 4, !tbaa !9
  %7 = getelementptr inbounds nuw i8, ptr %0, i64 88
  store i32 -1009589776, ptr %7, align 8, !tbaa !9
  ret void
}